target datalayout = "e-m:e-p270:32:32-p271:32:32-p272:64:64-i64:64-i128:128-f80:128-n8:16:32:64-S128"
target triple = "x86_64-pc-linux-gnu"

; Function Attrs: nounwind uwtable
define i32 @zend_array_element_type(i32 noundef %0, i8 noundef zeroext %1, i32 noundef %2, i32 noundef %3) #0 {
  %5 = alloca i32, align 4
  %6 = alloca i8, align 1
  %7 = alloca i32, align 4
  %8 = alloca i32, align 4
  %9 = alloca i32, align 4
  store i32 %0, ptr %5, align 4
  store i8 %1, ptr %6, align 1
  store i32 %2, ptr %7, align 4
  store i32 %3, ptr %8, align 4
  store i32 0, ptr %9, align 4
  %10 = load i32, ptr %5, align 4
  %11 = and i32 %10, 256
  %12 = icmp ne i32 %11, 0
  br i1 %12, label %13, label %29

13:                                               ; preds = %4
  %14 = load i32, ptr %7, align 4
  %15 = icmp ne i32 %14, 0
  br i1 %15, label %19, label %16

16:                                               ; preds = %13
  %17 = load i32, ptr %9, align 4
  %18 = or i32 %17, -520094722
  store i32 %18, ptr %9, align 4
  br label %22

19:                                               ; preds = %13
  %20 = load i32, ptr %9, align 4
  %21 = or i32 %20, -520093698
  store i32 %21, ptr %9, align 4
  br label %22

22:                                               ; preds = %19, %16
  %23 = load i32, ptr %7, align 4
  %24 = icmp ne i32 %23, 0
  br i1 %24, label %25, label %28

25:                                               ; preds = %22
  %26 = load i32, ptr %9, align 4
  %27 = or i32 %26, 33554432
  store i32 %27, ptr %9, align 4
  br label %28

28:                                               ; preds = %25, %22
  br label %29

29:                                               ; preds = %28, %4
  %30 = load i32, ptr %5, align 4
  %31 = and i32 %30, 128
  %32 = icmp ne i32 %31, 0
  br i1 %32, label %33, label %94

33:                                               ; preds = %29
  %34 = load i32, ptr %8, align 4
  %35 = icmp ne i32 %34, 0
  br i1 %35, label %36, label %39

36:                                               ; preds = %33
  %37 = load i32, ptr %9, align 4
  %38 = or i32 %37, 2
  store i32 %38, ptr %9, align 4
  br label %87

39:                                               ; preds = %33
  %40 = load i32, ptr %5, align 4
  %41 = and i32 %40, 1046528
  %42 = lshr i32 %41, 10
  %43 = or i32 2, %42
  %44 = load i32, ptr %9, align 4
  %45 = or i32 %44, %43
  store i32 %45, ptr %9, align 4
  %46 = load i32, ptr %9, align 4
  %47 = and i32 %46, 128
  %48 = icmp ne i32 %47, 0
  br i1 %48, label %49, label %52

49:                                               ; preds = %39
  %50 = load i32, ptr %9, align 4
  %51 = or i32 %50, 553646080
  store i32 %51, ptr %9, align 4
  br label %52

52:                                               ; preds = %49, %39
  %53 = load i32, ptr %9, align 4
  %54 = and i32 %53, 960
  %55 = icmp ne i32 %54, 0
  br i1 %55, label %56, label %86

56:                                               ; preds = %52
  %57 = load i32, ptr %7, align 4
  %58 = icmp ne i32 %57, 0
  br i1 %58, label %74, label %59

59:                                               ; preds = %56
  %60 = load i32, ptr %9, align 4
  %61 = or i32 %60, -2147483648
  store i32 %61, ptr %9, align 4
  %62 = load i8, ptr %6, align 1
  %63 = zext i8 %62 to i32
  %64 = and i32 %63, 6
  %65 = icmp ne i32 %64, 0
  br i1 %65, label %66, label %73

66:                                               ; preds = %59
  %67 = load i32, ptr %5, align 4
  %68 = and i32 %67, 1073741824
  %69 = icmp ne i32 %68, 0
  br i1 %69, label %70, label %73

70:                                               ; preds = %66
  %71 = load i32, ptr %9, align 4
  %72 = or i32 %71, 1073741824
  store i32 %72, ptr %9, align 4
  br label %73

73:                                               ; preds = %70, %66, %59
  br label %85

74:                                               ; preds = %56
  %75 = load i32, ptr %5, align 4
  %76 = and i32 %75, 1048576
  %77 = icmp ne i32 %76, 0
  br i1 %77, label %78, label %81

78:                                               ; preds = %74
  %79 = load i32, ptr %9, align 4
  %80 = or i32 %79, -1073740800
  store i32 %80, ptr %9, align 4
  br label %84

81:                                               ; preds = %74
  %82 = load i32, ptr %9, align 4
  %83 = or i32 %82, -1073741824
  store i32 %83, ptr %9, align 4
  br label %84

84:                                               ; preds = %81, %78
  br label %85

85:                                               ; preds = %84, %73
  br label %86

86:                                               ; preds = %85, %52
  br label %87

87:                                               ; preds = %86, %36
  %88 = load i32, ptr %7, align 4
  %89 = icmp ne i32 %88, 0
  br i1 %89, label %90, label %93

90:                                               ; preds = %87
  %91 = load i32, ptr %9, align 4
  %92 = or i32 %91, 33554432
  store i32 %92, ptr %9, align 4
  br label %93

93:                                               ; preds = %90, %87
  br label %94

94:                                               ; preds = %93, %29
  %95 = load i32, ptr %5, align 4
  %96 = and i32 %95, 64
  %97 = icmp ne i32 %96, 0
  br i1 %97, label %98, label %107

98:                                               ; preds = %94
  %99 = load i32, ptr %9, align 4
  %100 = or i32 %99, 1073741888
  store i32 %100, ptr %9, align 4
  %101 = load i32, ptr %7, align 4
  %102 = icmp ne i32 %101, 0
  br i1 %102, label %103, label %106

103:                                              ; preds = %98
  %104 = load i32, ptr %9, align 4
  %105 = or i32 %104, 2
  store i32 %105, ptr %9, align 4
  br label %106

106:                                              ; preds = %103, %98
  br label %107

107:                                              ; preds = %106, %94
  %108 = load i32, ptr %5, align 4
  %109 = and i32 %108, 7
  %110 = icmp ne i32 %109, 0
  br i1 %110, label %111, label %120

111:                                              ; preds = %107
  %112 = load i32, ptr %9, align 4
  %113 = or i32 %112, 2
  store i32 %113, ptr %9, align 4
  %114 = load i32, ptr %7, align 4
  %115 = icmp ne i32 %114, 0
  br i1 %115, label %116, label %119

116:                                              ; preds = %111
  %117 = load i32, ptr %9, align 4
  %118 = or i32 %117, 33554432
  store i32 %118, ptr %9, align 4
  br label %119

119:                                              ; preds = %116, %111
  br label %120

120:                                              ; preds = %119, %107
  %121 = load i32, ptr %5, align 4
  %122 = and i32 %121, 568
  %123 = icmp ne i32 %122, 0
  br i1 %123, label %124, label %131

124:                                              ; preds = %120
  %125 = load i32, ptr %7, align 4
  %126 = icmp ne i32 %125, 0
  br i1 %126, label %130, label %127

127:                                              ; preds = %124
  %128 = load i32, ptr %9, align 4
  %129 = or i32 %128, 2
  store i32 %129, ptr %9, align 4
  br label %130

130:                                              ; preds = %127, %124
  br label %131

131:                                              ; preds = %130, %120
  %132 = load i32, ptr %9, align 4
  ret i32 %132
}