; Function Attrs: mustprogress nofree norecurse nosync nounwind willreturn memory(none) uwtable
define i32 @zend_array_element_type(i32 noundef %0, i8 noundef zeroext %1, i32 noundef %2, i32 noundef %3) local_unnamed_addr #10 {
  %5 = and i32 %0, 256
  %.not = icmp eq i32 %5, 0
  %.not37 = icmp eq i32 %2, 0
  %spec.select56 = select i1 %.not37, i32 -520094722, i32 -486539266
  %.1 = select i1 %.not, i32 0, i32 %spec.select56
  %6 = and i32 %0, 128
  %.not38 = icmp eq i32 %6, 0
  br i1 %.not38, label %28, label %7

7:                                                ; preds = %4
  %.not39 = icmp eq i32 %3, 0
  br i1 %.not39, label %10, label %8

8:                                                ; preds = %7
  %9 = or i32 %.1, 2
  br label %26

10:                                               ; preds = %7
  %11 = lshr i32 %0, 10
  %12 = and i32 %11, 1020
  %13 = or i32 %12, %.1
  %14 = and i32 %13, 128
  %.not40 = icmp eq i32 %14, 0
  %spec.select.v = select i1 %.not40, i32 2, i32 553646082
  %spec.select = or i32 %13, %spec.select.v
  %15 = and i32 %13, 960
  %.not41 = icmp eq i32 %15, 0
  br i1 %.not41, label %26, label %16

16:                                               ; preds = %10
  br i1 %.not37, label %17, label %20

17:                                               ; preds = %16
  %18 = and i8 %1, 6
  %.not43 = icmp eq i8 %18, 0
  %19 = and i32 %0, 1073741824
  %.not44 = icmp eq i32 %19, 0
  %or.cond51 = or i1 %.not44, %.not43
  %spec.select57.v = select i1 %or.cond51, i32 -2147483648, i32 -1073741824
  %spec.select57 = or i32 %spec.select, %spec.select57.v
  br label %26

20:                                               ; preds = %16
  %21 = and i32 %0, 1048576
  %.not45 = icmp eq i32 %21, 0
  br i1 %.not45, label %24, label %22

22:                                               ; preds = %20
  %23 = or i32 %spec.select, -1073740800
  br label %26

24:                                               ; preds = %20
  %25 = or i32 %spec.select, -1073741824
  br label %26

26:                                               ; preds = %17, %10, %22, %24, %8
  %.3 = phi i32 [ %9, %8 ], [ %23, %22 ], [ %25, %24 ], [ %spec.select, %10 ], [ %spec.select57, %17 ]
  %27 = or i32 %.3, 33554432
  %spec.select52 = select i1 %.not37, i32 %.3, i32 %27
  br label %28

28:                                               ; preds = %26, %4
  %.4 = phi i32 [ %.1, %4 ], [ %spec.select52, %26 ]
  %29 = and i32 %0, 64
  %.not47 = icmp eq i32 %29, 0
  %spec.select53.v = select i1 %.not37, i32 1073741888, i32 1073741890
  %spec.select53 = select i1 %.not47, i32 0, i32 %spec.select53.v
  %30 = and i32 %0, 7
  %.not49 = icmp eq i32 %30, 0
  %spec.select54.v = select i1 %.not37, i32 2, i32 33554434
  %spec.select54 = select i1 %.not49, i32 0, i32 %spec.select54.v
  %.5 = or i32 %spec.select54, %spec.select53
  %.6 = or i32 %.5, %.4
  %31 = and i32 %0, 568
  %32 = icmp eq i32 %31, 0
  %33 = icmp ne i32 %2, 0
  %or.cond = or i1 %32, %33
  %34 = or i32 %.6, 2
  %spec.select55 = select i1 %or.cond, i32 %.6, i32 %34
  ret i32 %spec.select55
}